(lp0
S'/media/mohammadj/53f67744-2e22-44e6-99e3-fa5719d1486d1/Unify_Data/Public_Camus/training/patient0037'
p1
aS'/media/mohammadj/53f67744-2e22-44e6-99e3-fa5719d1486d1/Unify_Data/Public_Camus/training/patient0419'
p2
aS'/media/mohammadj/53f67744-2e22-44e6-99e3-fa5719d1486d1/Unify_Data/Public_Camus/training/patient0135'
p3
aS'/media/mohammadj/53f67744-2e22-44e6-99e3-fa5719d1486d1/Unify_Data/Public_Camus/training/patient0324'
p4
aS'/media/mohammadj/53f67744-2e22-44e6-99e3-fa5719d1486d1/Unify_Data/Public_Camus/training/patient0119'
p5
aS'/media/mohammadj/53f67744-2e22-44e6-99e3-fa5719d1486d1/Unify_Data/Public_Camus/training/patient0382'
p6
aS'/media/mohammadj/53f67744-2e22-44e6-99e3-fa5719d1486d1/Unify_Data/Public_Camus/training/patient0353'
p7
aS'/media/mohammadj/53f67744-2e22-44e6-99e3-fa5719d1486d1/Unify_Data/Public_Camus/training/patient0207'
p8
aS'/media/mohammadj/53f67744-2e22-44e6-99e3-fa5719d1486d1/Unify_Data/Public_Camus/training/patient0074'
p9
aS'/media/mohammadj/53f67744-2e22-44e6-99e3-fa5719d1486d1/Unify_Data/Public_Camus/training/patient0402'
p10
aS'/media/mohammadj/53f67744-2e22-44e6-99e3-fa5719d1486d1/Unify_Data/Public_Camus/training/patient0365'
p11
aS'/media/mohammadj/53f67744-2e22-44e6-99e3-fa5719d1486d1/Unify_Data/Public_Camus/training/patient0095'
p12
aS'/media/mohammadj/53f67744-2e22-44e6-99e3-fa5719d1486d1/Unify_Data/Public_Camus/training/patient0242'
p13
aS'/media/mohammadj/53f67744-2e22-44e6-99e3-fa5719d1486d1/Unify_Data/Public_Camus/training/patient0344'
p14
aS'/media/mohammadj/53f67744-2e22-44e6-99e3-fa5719d1486d1/Unify_Data/Public_Camus/training/patient0118'
p15
aS'/media/mohammadj/53f67744-2e22-44e6-99e3-fa5719d1486d1/Unify_Data/Public_Camus/training/patient0360'
p16
aS'/media/mohammadj/53f67744-2e22-44e6-99e3-fa5719d1486d1/Unify_Data/Public_Camus/training/patient0088'
p17
aS'/media/mohammadj/53f67744-2e22-44e6-99e3-fa5719d1486d1/Unify_Data/Public_Camus/training/patient0240'
p18
aS'/media/mohammadj/53f67744-2e22-44e6-99e3-fa5719d1486d1/Unify_Data/Public_Camus/training/patient0111'
p19
aS'/media/mohammadj/53f67744-2e22-44e6-99e3-fa5719d1486d1/Unify_Data/Public_Camus/training/patient0246'
p20
aS'/media/mohammadj/53f67744-2e22-44e6-99e3-fa5719d1486d1/Unify_Data/Public_Camus/training/patient0042'
p21
aS'/media/mohammadj/53f67744-2e22-44e6-99e3-fa5719d1486d1/Unify_Data/Public_Camus/training/patient0009'
p22
aS'/media/mohammadj/53f67744-2e22-44e6-99e3-fa5719d1486d1/Unify_Data/Public_Camus/training/patient0251'
p23
aS'/media/mohammadj/53f67744-2e22-44e6-99e3-fa5719d1486d1/Unify_Data/Public_Camus/training/patient0433'
p24
aS'/media/mohammadj/53f67744-2e22-44e6-99e3-fa5719d1486d1/Unify_Data/Public_Camus/training/patient0175'
p25
aS'/media/mohammadj/53f67744-2e22-44e6-99e3-fa5719d1486d1/Unify_Data/Public_Camus/training/patient0295'
p26
aS'/media/mohammadj/53f67744-2e22-44e6-99e3-fa5719d1486d1/Unify_Data/Public_Camus/training/patient0268'
p27
aS'/media/mohammadj/53f67744-2e22-44e6-99e3-fa5719d1486d1/Unify_Data/Public_Camus/training/patient0050'
p28
aS'/media/mohammadj/53f67744-2e22-44e6-99e3-fa5719d1486d1/Unify_Data/Public_Camus/training/patient0248'
p29
aS'/media/mohammadj/53f67744-2e22-44e6-99e3-fa5719d1486d1/Unify_Data/Public_Camus/training/patient0417'
p30
aS'/media/mohammadj/53f67744-2e22-44e6-99e3-fa5719d1486d1/Unify_Data/Public_Camus/training/patient0228'
p31
aS'/media/mohammadj/53f67744-2e22-44e6-99e3-fa5719d1486d1/Unify_Data/Public_Camus/training/patient0194'
p32
aS'/media/mohammadj/53f67744-2e22-44e6-99e3-fa5719d1486d1/Unify_Data/Public_Camus/training/patient0280'
p33
aS'/media/mohammadj/53f67744-2e22-44e6-99e3-fa5719d1486d1/Unify_Data/Public_Camus/training/patient0110'
p34
aS'/media/mohammadj/53f67744-2e22-44e6-99e3-fa5719d1486d1/Unify_Data/Public_Camus/training/patient0426'
p35
aS'/media/mohammadj/53f67744-2e22-44e6-99e3-fa5719d1486d1/Unify_Data/Public_Camus/training/patient0092'
p36
aS'/media/mohammadj/53f67744-2e22-44e6-99e3-fa5719d1486d1/Unify_Data/Public_Camus/training/patient0196'
p37
aS'/media/mohammadj/53f67744-2e22-44e6-99e3-fa5719d1486d1/Unify_Data/Public_Camus/training/patient0257'
p38
aS'/media/mohammadj/53f67744-2e22-44e6-99e3-fa5719d1486d1/Unify_Data/Public_Camus/training/patient0094'
p39
aS'/media/mohammadj/53f67744-2e22-44e6-99e3-fa5719d1486d1/Unify_Data/Public_Camus/training/patient0131'
p40
aS'/media/mohammadj/53f67744-2e22-44e6-99e3-fa5719d1486d1/Unify_Data/Public_Camus/training/patient0306'
p41
aS'/media/mohammadj/53f67744-2e22-44e6-99e3-fa5719d1486d1/Unify_Data/Public_Camus/training/patient0332'
p42
aS'/media/mohammadj/53f67744-2e22-44e6-99e3-fa5719d1486d1/Unify_Data/Public_Camus/training/patient0409'
p43
aS'/media/mohammadj/53f67744-2e22-44e6-99e3-fa5719d1486d1/Unify_Data/Public_Camus/training/patient0302'
p44
aS'/media/mohammadj/53f67744-2e22-44e6-99e3-fa5719d1486d1/Unify_Data/Public_Camus/training/patient0004'
p45
aS'/media/mohammadj/53f67744-2e22-44e6-99e3-fa5719d1486d1/Unify_Data/Public_Camus/training/patient0121'
p46
aS'/media/mohammadj/53f67744-2e22-44e6-99e3-fa5719d1486d1/Unify_Data/Public_Camus/training/patient0330'
p47
aS'/media/mohammadj/53f67744-2e22-44e6-99e3-fa5719d1486d1/Unify_Data/Public_Camus/training/patient0167'
p48
aS'/media/mohammadj/53f67744-2e22-44e6-99e3-fa5719d1486d1/Unify_Data/Public_Camus/training/patient0071'
p49
aS'/media/mohammadj/53f67744-2e22-44e6-99e3-fa5719d1486d1/Unify_Data/Public_Camus/training/patient0063'
p50
aS'/media/mohammadj/53f67744-2e22-44e6-99e3-fa5719d1486d1/Unify_Data/Public_Camus/training/patient0331'
p51
aS'/media/mohammadj/53f67744-2e22-44e6-99e3-fa5719d1486d1/Unify_Data/Public_Camus/training/patient0022'
p52
aS'/media/mohammadj/53f67744-2e22-44e6-99e3-fa5719d1486d1/Unify_Data/Public_Camus/training/patient0012'
p53
aS'/media/mohammadj/53f67744-2e22-44e6-99e3-fa5719d1486d1/Unify_Data/Public_Camus/training/patient0338'
p54
aS'/media/mohammadj/53f67744-2e22-44e6-99e3-fa5719d1486d1/Unify_Data/Public_Camus/training/patient0249'
p55
aS'/media/mohammadj/53f67744-2e22-44e6-99e3-fa5719d1486d1/Unify_Data/Public_Camus/training/patient0356'
p56
aS'/media/mohammadj/53f67744-2e22-44e6-99e3-fa5719d1486d1/Unify_Data/Public_Camus/training/patient0394'
p57
aS'/media/mohammadj/53f67744-2e22-44e6-99e3-fa5719d1486d1/Unify_Data/Public_Camus/training/patient0363'
p58
aS'/media/mohammadj/53f67744-2e22-44e6-99e3-fa5719d1486d1/Unify_Data/Public_Camus/training/patient0016'
p59
aS'/media/mohammadj/53f67744-2e22-44e6-99e3-fa5719d1486d1/Unify_Data/Public_Camus/training/patient0317'
p60
aS'/media/mohammadj/53f67744-2e22-44e6-99e3-fa5719d1486d1/Unify_Data/Public_Camus/training/patient0161'
p61
aS'/media/mohammadj/53f67744-2e22-44e6-99e3-fa5719d1486d1/Unify_Data/Public_Camus/training/patient0310'
p62
aS'/media/mohammadj/53f67744-2e22-44e6-99e3-fa5719d1486d1/Unify_Data/Public_Camus/training/patient0108'
p63
aS'/media/mohammadj/53f67744-2e22-44e6-99e3-fa5719d1486d1/Unify_Data/Public_Camus/training/patient0039'
p64
aS'/media/mohammadj/53f67744-2e22-44e6-99e3-fa5719d1486d1/Unify_Data/Public_Camus/training/patient0132'
p65
aS'/media/mohammadj/53f67744-2e22-44e6-99e3-fa5719d1486d1/Unify_Data/Public_Camus/training/patient0164'
p66
aS'/media/mohammadj/53f67744-2e22-44e6-99e3-fa5719d1486d1/Unify_Data/Public_Camus/training/patient0283'
p67
aS'/media/mohammadj/53f67744-2e22-44e6-99e3-fa5719d1486d1/Unify_Data/Public_Camus/training/patient0235'
p68
aS'/media/mohammadj/53f67744-2e22-44e6-99e3-fa5719d1486d1/Unify_Data/Public_Camus/training/patient0319'
p69
aS'/media/mohammadj/53f67744-2e22-44e6-99e3-fa5719d1486d1/Unify_Data/Public_Camus/training/patient0443'
p70
aS'/media/mohammadj/53f67744-2e22-44e6-99e3-fa5719d1486d1/Unify_Data/Public_Camus/training/patient0384'
p71
aS'/media/mohammadj/53f67744-2e22-44e6-99e3-fa5719d1486d1/Unify_Data/Public_Camus/training/patient0388'
p72
aS'/media/mohammadj/53f67744-2e22-44e6-99e3-fa5719d1486d1/Unify_Data/Public_Camus/training/patient0158'
p73
aS'/media/mohammadj/53f67744-2e22-44e6-99e3-fa5719d1486d1/Unify_Data/Public_Camus/training/patient0425'
p74
aS'/media/mohammadj/53f67744-2e22-44e6-99e3-fa5719d1486d1/Unify_Data/Public_Camus/training/patient0206'
p75
aS'/media/mohammadj/53f67744-2e22-44e6-99e3-fa5719d1486d1/Unify_Data/Public_Camus/training/patient0107'
p76
aS'/media/mohammadj/53f67744-2e22-44e6-99e3-fa5719d1486d1/Unify_Data/Public_Camus/training/patient0389'
p77
aS'/media/mohammadj/53f67744-2e22-44e6-99e3-fa5719d1486d1/Unify_Data/Public_Camus/training/patient0032'
p78
aS'/media/mohammadj/53f67744-2e22-44e6-99e3-fa5719d1486d1/Unify_Data/Public_Camus/training/patient0308'
p79
aS'/media/mohammadj/53f67744-2e22-44e6-99e3-fa5719d1486d1/Unify_Data/Public_Camus/training/patient0066'
p80
aS'/media/mohammadj/53f67744-2e22-44e6-99e3-fa5719d1486d1/Unify_Data/Public_Camus/training/patient0178'
p81
aS'/media/mohammadj/53f67744-2e22-44e6-99e3-fa5719d1486d1/Unify_Data/Public_Camus/training/patient0406'
p82
aS'/media/mohammadj/53f67744-2e22-44e6-99e3-fa5719d1486d1/Unify_Data/Public_Camus/training/patient0299'
p83
aS'/media/mohammadj/53f67744-2e22-44e6-99e3-fa5719d1486d1/Unify_Data/Public_Camus/training/patient0405'
p84
aS'/media/mohammadj/53f67744-2e22-44e6-99e3-fa5719d1486d1/Unify_Data/Public_Camus/training/patient0073'
p85
aS'/media/mohammadj/53f67744-2e22-44e6-99e3-fa5719d1486d1/Unify_Data/Public_Camus/training/patient0046'
p86
aS'/media/mohammadj/53f67744-2e22-44e6-99e3-fa5719d1486d1/Unify_Data/Public_Camus/training/patient0109'
p87
aS'/media/mohammadj/53f67744-2e22-44e6-99e3-fa5719d1486d1/Unify_Data/Public_Camus/training/patient0026'
p88
aS'/media/mohammadj/53f67744-2e22-44e6-99e3-fa5719d1486d1/Unify_Data/Public_Camus/training/patient0401'
p89
aS'/media/mohammadj/53f67744-2e22-44e6-99e3-fa5719d1486d1/Unify_Data/Public_Camus/training/patient0230'
p90
aS'/media/mohammadj/53f67744-2e22-44e6-99e3-fa5719d1486d1/Unify_Data/Public_Camus/training/patient0070'
p91
aS'/media/mohammadj/53f67744-2e22-44e6-99e3-fa5719d1486d1/Unify_Data/Public_Camus/training/patient0195'
p92
aS'/media/mohammadj/53f67744-2e22-44e6-99e3-fa5719d1486d1/Unify_Data/Public_Camus/training/patient0252'
p93
aS'/media/mohammadj/53f67744-2e22-44e6-99e3-fa5719d1486d1/Unify_Data/Public_Camus/training/patient0060'
p94
aS'/media/mohammadj/53f67744-2e22-44e6-99e3-fa5719d1486d1/Unify_Data/Public_Camus/training/patient0221'
p95
aS'/media/mohammadj/53f67744-2e22-44e6-99e3-fa5719d1486d1/Unify_Data/Public_Camus/training/patient0350'
p96
aS'/media/mohammadj/53f67744-2e22-44e6-99e3-fa5719d1486d1/Unify_Data/Public_Camus/training/patient0179'
p97
aS'/media/mohammadj/53f67744-2e22-44e6-99e3-fa5719d1486d1/Unify_Data/Public_Camus/training/patient0403'
p98
aS'/media/mohammadj/53f67744-2e22-44e6-99e3-fa5719d1486d1/Unify_Data/Public_Camus/training/patient0256'
p99
aS'/media/mohammadj/53f67744-2e22-44e6-99e3-fa5719d1486d1/Unify_Data/Public_Camus/training/patient0335'
p100
aS'/media/mohammadj/53f67744-2e22-44e6-99e3-fa5719d1486d1/Unify_Data/Public_Camus/training/patient0205'
p101
aS'/media/mohammadj/53f67744-2e22-44e6-99e3-fa5719d1486d1/Unify_Data/Public_Camus/training/patient0367'
p102
aS'/media/mohammadj/53f67744-2e22-44e6-99e3-fa5719d1486d1/Unify_Data/Public_Camus/training/patient0127'
p103
aS'/media/mohammadj/53f67744-2e22-44e6-99e3-fa5719d1486d1/Unify_Data/Public_Camus/training/patient0245'
p104
aS'/media/mohammadj/53f67744-2e22-44e6-99e3-fa5719d1486d1/Unify_Data/Public_Camus/training/patient0377'
p105
aS'/media/mohammadj/53f67744-2e22-44e6-99e3-fa5719d1486d1/Unify_Data/Public_Camus/training/patient0138'
p106
aS'/media/mohammadj/53f67744-2e22-44e6-99e3-fa5719d1486d1/Unify_Data/Public_Camus/training/patient0298'
p107
aS'/media/mohammadj/53f67744-2e22-44e6-99e3-fa5719d1486d1/Unify_Data/Public_Camus/training/patient0371'
p108
aS'/media/mohammadj/53f67744-2e22-44e6-99e3-fa5719d1486d1/Unify_Data/Public_Camus/training/patient0006'
p109
aS'/media/mohammadj/53f67744-2e22-44e6-99e3-fa5719d1486d1/Unify_Data/Public_Camus/training/patient0431'
p110
aS'/media/mohammadj/53f67744-2e22-44e6-99e3-fa5719d1486d1/Unify_Data/Public_Camus/training/patient0083'
p111
aS'/media/mohammadj/53f67744-2e22-44e6-99e3-fa5719d1486d1/Unify_Data/Public_Camus/training/patient0080'
p112
aS'/media/mohammadj/53f67744-2e22-44e6-99e3-fa5719d1486d1/Unify_Data/Public_Camus/training/patient0391'
p113
aS'/media/mohammadj/53f67744-2e22-44e6-99e3-fa5719d1486d1/Unify_Data/Public_Camus/training/patient0023'
p114
aS'/media/mohammadj/53f67744-2e22-44e6-99e3-fa5719d1486d1/Unify_Data/Public_Camus/training/patient0247'
p115
aS'/media/mohammadj/53f67744-2e22-44e6-99e3-fa5719d1486d1/Unify_Data/Public_Camus/training/patient0054'
p116
aS'/media/mohammadj/53f67744-2e22-44e6-99e3-fa5719d1486d1/Unify_Data/Public_Camus/training/patient0176'
p117
aS'/media/mohammadj/53f67744-2e22-44e6-99e3-fa5719d1486d1/Unify_Data/Public_Camus/training/patient0169'
p118
aS'/media/mohammadj/53f67744-2e22-44e6-99e3-fa5719d1486d1/Unify_Data/Public_Camus/training/patient0265'
p119
aS'/media/mohammadj/53f67744-2e22-44e6-99e3-fa5719d1486d1/Unify_Data/Public_Camus/training/patient0101'
p120
aS'/media/mohammadj/53f67744-2e22-44e6-99e3-fa5719d1486d1/Unify_Data/Public_Camus/training/patient0314'
p121
aS'/media/mohammadj/53f67744-2e22-44e6-99e3-fa5719d1486d1/Unify_Data/Public_Camus/training/patient0316'
p122
aS'/media/mohammadj/53f67744-2e22-44e6-99e3-fa5719d1486d1/Unify_Data/Public_Camus/training/patient0318'
p123
aS'/media/mohammadj/53f67744-2e22-44e6-99e3-fa5719d1486d1/Unify_Data/Public_Camus/training/patient0301'
p124
aS'/media/mohammadj/53f67744-2e22-44e6-99e3-fa5719d1486d1/Unify_Data/Public_Camus/training/patient0216'
p125
aS'/media/mohammadj/53f67744-2e22-44e6-99e3-fa5719d1486d1/Unify_Data/Public_Camus/training/patient0278'
p126
aS'/media/mohammadj/53f67744-2e22-44e6-99e3-fa5719d1486d1/Unify_Data/Public_Camus/training/patient0025'
p127
aS'/media/mohammadj/53f67744-2e22-44e6-99e3-fa5719d1486d1/Unify_Data/Public_Camus/training/patient0281'
p128
aS'/media/mohammadj/53f67744-2e22-44e6-99e3-fa5719d1486d1/Unify_Data/Public_Camus/training/patient0231'
p129
aS'/media/mohammadj/53f67744-2e22-44e6-99e3-fa5719d1486d1/Unify_Data/Public_Camus/training/patient0105'
p130
aS'/media/mohammadj/53f67744-2e22-44e6-99e3-fa5719d1486d1/Unify_Data/Public_Camus/training/patient0397'
p131
aS'/media/mohammadj/53f67744-2e22-44e6-99e3-fa5719d1486d1/Unify_Data/Public_Camus/training/patient0076'
p132
aS'/media/mohammadj/53f67744-2e22-44e6-99e3-fa5719d1486d1/Unify_Data/Public_Camus/training/patient0390'
p133
aS'/media/mohammadj/53f67744-2e22-44e6-99e3-fa5719d1486d1/Unify_Data/Public_Camus/training/patient0197'
p134
aS'/media/mohammadj/53f67744-2e22-44e6-99e3-fa5719d1486d1/Unify_Data/Public_Camus/training/patient0305'
p135
aS'/media/mohammadj/53f67744-2e22-44e6-99e3-fa5719d1486d1/Unify_Data/Public_Camus/training/patient0357'
p136
aS'/media/mohammadj/53f67744-2e22-44e6-99e3-fa5719d1486d1/Unify_Data/Public_Camus/training/patient0329'
p137
aS'/media/mohammadj/53f67744-2e22-44e6-99e3-fa5719d1486d1/Unify_Data/Public_Camus/training/patient0061'
p138
aS'/media/mohammadj/53f67744-2e22-44e6-99e3-fa5719d1486d1/Unify_Data/Public_Camus/training/patient0244'
p139
aS'/media/mohammadj/53f67744-2e22-44e6-99e3-fa5719d1486d1/Unify_Data/Public_Camus/training/patient0223'
p140
aS'/media/mohammadj/53f67744-2e22-44e6-99e3-fa5719d1486d1/Unify_Data/Public_Camus/training/patient0340'
p141
aS'/media/mohammadj/53f67744-2e22-44e6-99e3-fa5719d1486d1/Unify_Data/Public_Camus/training/patient0381'
p142
aS'/media/mohammadj/53f67744-2e22-44e6-99e3-fa5719d1486d1/Unify_Data/Public_Camus/training/patient0035'
p143
aS'/media/mohammadj/53f67744-2e22-44e6-99e3-fa5719d1486d1/Unify_Data/Public_Camus/training/patient0343'
p144
aS'/media/mohammadj/53f67744-2e22-44e6-99e3-fa5719d1486d1/Unify_Data/Public_Camus/training/patient0160'
p145
aS'/media/mohammadj/53f67744-2e22-44e6-99e3-fa5719d1486d1/Unify_Data/Public_Camus/training/patient0163'
p146
aS'/media/mohammadj/53f67744-2e22-44e6-99e3-fa5719d1486d1/Unify_Data/Public_Camus/training/patient0125'
p147
aS'/media/mohammadj/53f67744-2e22-44e6-99e3-fa5719d1486d1/Unify_Data/Public_Camus/training/patient0286'
p148
aS'/media/mohammadj/53f67744-2e22-44e6-99e3-fa5719d1486d1/Unify_Data/Public_Camus/training/patient0282'
p149
aS'/media/mohammadj/53f67744-2e22-44e6-99e3-fa5719d1486d1/Unify_Data/Public_Camus/training/patient0145'
p150
aS'/media/mohammadj/53f67744-2e22-44e6-99e3-fa5719d1486d1/Unify_Data/Public_Camus/training/patient0017'
p151
aS'/media/mohammadj/53f67744-2e22-44e6-99e3-fa5719d1486d1/Unify_Data/Public_Camus/training/patient0374'
p152
aS'/media/mohammadj/53f67744-2e22-44e6-99e3-fa5719d1486d1/Unify_Data/Public_Camus/training/patient0097'
p153
aS'/media/mohammadj/53f67744-2e22-44e6-99e3-fa5719d1486d1/Unify_Data/Public_Camus/training/patient0114'
p154
aS'/media/mohammadj/53f67744-2e22-44e6-99e3-fa5719d1486d1/Unify_Data/Public_Camus/training/patient0259'
p155
aS'/media/mohammadj/53f67744-2e22-44e6-99e3-fa5719d1486d1/Unify_Data/Public_Camus/training/patient0075'
p156
aS'/media/mohammadj/53f67744-2e22-44e6-99e3-fa5719d1486d1/Unify_Data/Public_Camus/training/patient0293'
p157
aS'/media/mohammadj/53f67744-2e22-44e6-99e3-fa5719d1486d1/Unify_Data/Public_Camus/training/patient0434'
p158
aS'/media/mohammadj/53f67744-2e22-44e6-99e3-fa5719d1486d1/Unify_Data/Public_Camus/training/patient0087'
p159
aS'/media/mohammadj/53f67744-2e22-44e6-99e3-fa5719d1486d1/Unify_Data/Public_Camus/training/patient0010'
p160
aS'/media/mohammadj/53f67744-2e22-44e6-99e3-fa5719d1486d1/Unify_Data/Public_Camus/training/patient0045'
p161
aS'/media/mohammadj/53f67744-2e22-44e6-99e3-fa5719d1486d1/Unify_Data/Public_Camus/training/patient0439'
p162
aS'/media/mohammadj/53f67744-2e22-44e6-99e3-fa5719d1486d1/Unify_Data/Public_Camus/training/patient0129'
p163
aS'/media/mohammadj/53f67744-2e22-44e6-99e3-fa5719d1486d1/Unify_Data/Public_Camus/training/patient0323'
p164
aS'/media/mohammadj/53f67744-2e22-44e6-99e3-fa5719d1486d1/Unify_Data/Public_Camus/training/patient0171'
p165
aS'/media/mohammadj/53f67744-2e22-44e6-99e3-fa5719d1486d1/Unify_Data/Public_Camus/training/patient0321'
p166
aS'/media/mohammadj/53f67744-2e22-44e6-99e3-fa5719d1486d1/Unify_Data/Public_Camus/training/patient0182'
p167
aS'/media/mohammadj/53f67744-2e22-44e6-99e3-fa5719d1486d1/Unify_Data/Public_Camus/training/patient0226'
p168
aS'/media/mohammadj/53f67744-2e22-44e6-99e3-fa5719d1486d1/Unify_Data/Public_Camus/training/patient0255'
p169
aS'/media/mohammadj/53f67744-2e22-44e6-99e3-fa5719d1486d1/Unify_Data/Public_Camus/training/patient0077'
p170
aS'/media/mohammadj/53f67744-2e22-44e6-99e3-fa5719d1486d1/Unify_Data/Public_Camus/training/patient0334'
p171
aS'/media/mohammadj/53f67744-2e22-44e6-99e3-fa5719d1486d1/Unify_Data/Public_Camus/training/patient0200'
p172
aS'/media/mohammadj/53f67744-2e22-44e6-99e3-fa5719d1486d1/Unify_Data/Public_Camus/training/patient0185'
p173
aS'/media/mohammadj/53f67744-2e22-44e6-99e3-fa5719d1486d1/Unify_Data/Public_Camus/training/patient0342'
p174
aS'/media/mohammadj/53f67744-2e22-44e6-99e3-fa5719d1486d1/Unify_Data/Public_Camus/training/patient0084'
p175
aS'/media/mohammadj/53f67744-2e22-44e6-99e3-fa5719d1486d1/Unify_Data/Public_Camus/training/patient0315'
p176
aS'/media/mohammadj/53f67744-2e22-44e6-99e3-fa5719d1486d1/Unify_Data/Public_Camus/training/patient0191'
p177
aS'/media/mohammadj/53f67744-2e22-44e6-99e3-fa5719d1486d1/Unify_Data/Public_Camus/training/patient0412'
p178
aS'/media/mohammadj/53f67744-2e22-44e6-99e3-fa5719d1486d1/Unify_Data/Public_Camus/training/patient0144'
p179
aS'/media/mohammadj/53f67744-2e22-44e6-99e3-fa5719d1486d1/Unify_Data/Public_Camus/training/patient0149'
p180
aS'/media/mohammadj/53f67744-2e22-44e6-99e3-fa5719d1486d1/Unify_Data/Public_Camus/training/patient0336'
p181
aS'/media/mohammadj/53f67744-2e22-44e6-99e3-fa5719d1486d1/Unify_Data/Public_Camus/training/patient0068'
p182
aS'/media/mohammadj/53f67744-2e22-44e6-99e3-fa5719d1486d1/Unify_Data/Public_Camus/training/patient0203'
p183
aS'/media/mohammadj/53f67744-2e22-44e6-99e3-fa5719d1486d1/Unify_Data/Public_Camus/training/patient0345'
p184
aS'/media/mohammadj/53f67744-2e22-44e6-99e3-fa5719d1486d1/Unify_Data/Public_Camus/training/patient0192'
p185
aS'/media/mohammadj/53f67744-2e22-44e6-99e3-fa5719d1486d1/Unify_Data/Public_Camus/training/patient0359'
p186
aS'/media/mohammadj/53f67744-2e22-44e6-99e3-fa5719d1486d1/Unify_Data/Public_Camus/training/patient0414'
p187
aS'/media/mohammadj/53f67744-2e22-44e6-99e3-fa5719d1486d1/Unify_Data/Public_Camus/training/patient0380'
p188
aS'/media/mohammadj/53f67744-2e22-44e6-99e3-fa5719d1486d1/Unify_Data/Public_Camus/training/patient0103'
p189
aS'/media/mohammadj/53f67744-2e22-44e6-99e3-fa5719d1486d1/Unify_Data/Public_Camus/training/patient0392'
p190
aS'/media/mohammadj/53f67744-2e22-44e6-99e3-fa5719d1486d1/Unify_Data/Public_Camus/training/patient0386'
p191
aS'/media/mohammadj/53f67744-2e22-44e6-99e3-fa5719d1486d1/Unify_Data/Public_Camus/training/patient0273'
p192
aS'/media/mohammadj/53f67744-2e22-44e6-99e3-fa5719d1486d1/Unify_Data/Public_Camus/training/patient0352'
p193
aS'/media/mohammadj/53f67744-2e22-44e6-99e3-fa5719d1486d1/Unify_Data/Public_Camus/training/patient0143'
p194
aS'/media/mohammadj/53f67744-2e22-44e6-99e3-fa5719d1486d1/Unify_Data/Public_Camus/training/patient0225'
p195
aS'/media/mohammadj/53f67744-2e22-44e6-99e3-fa5719d1486d1/Unify_Data/Public_Camus/training/patient0304'
p196
aS'/media/mohammadj/53f67744-2e22-44e6-99e3-fa5719d1486d1/Unify_Data/Public_Camus/training/patient0081'
p197
aS'/media/mohammadj/53f67744-2e22-44e6-99e3-fa5719d1486d1/Unify_Data/Public_Camus/training/patient0312'
p198
aS'/media/mohammadj/53f67744-2e22-44e6-99e3-fa5719d1486d1/Unify_Data/Public_Camus/training/patient0137'
p199
aS'/media/mohammadj/53f67744-2e22-44e6-99e3-fa5719d1486d1/Unify_Data/Public_Camus/training/patient0368'
p200
aS'/media/mohammadj/53f67744-2e22-44e6-99e3-fa5719d1486d1/Unify_Data/Public_Camus/training/patient0325'
p201
aS'/media/mohammadj/53f67744-2e22-44e6-99e3-fa5719d1486d1/Unify_Data/Public_Camus/training/patient0187'
p202
aS'/media/mohammadj/53f67744-2e22-44e6-99e3-fa5719d1486d1/Unify_Data/Public_Camus/training/patient0264'
p203
aS'/media/mohammadj/53f67744-2e22-44e6-99e3-fa5719d1486d1/Unify_Data/Public_Camus/training/patient0043'
p204
aS'/media/mohammadj/53f67744-2e22-44e6-99e3-fa5719d1486d1/Unify_Data/Public_Camus/training/patient0322'
p205
aS'/media/mohammadj/53f67744-2e22-44e6-99e3-fa5719d1486d1/Unify_Data/Public_Camus/training/patient0053'
p206
aS'/media/mohammadj/53f67744-2e22-44e6-99e3-fa5719d1486d1/Unify_Data/Public_Camus/training/patient0085'
p207
aS'/media/mohammadj/53f67744-2e22-44e6-99e3-fa5719d1486d1/Unify_Data/Public_Camus/training/patient0124'
p208
aS'/media/mohammadj/53f67744-2e22-44e6-99e3-fa5719d1486d1/Unify_Data/Public_Camus/training/patient0210'
p209
aS'/media/mohammadj/53f67744-2e22-44e6-99e3-fa5719d1486d1/Unify_Data/Public_Camus/training/patient0266'
p210
aS'/media/mohammadj/53f67744-2e22-44e6-99e3-fa5719d1486d1/Unify_Data/Public_Camus/training/patient0021'
p211
aS'/media/mohammadj/53f67744-2e22-44e6-99e3-fa5719d1486d1/Unify_Data/Public_Camus/training/patient0341'
p212
aS'/media/mohammadj/53f67744-2e22-44e6-99e3-fa5719d1486d1/Unify_Data/Public_Camus/training/patient0446'
p213
aS'/media/mohammadj/53f67744-2e22-44e6-99e3-fa5719d1486d1/Unify_Data/Public_Camus/training/patient0269'
p214
aS'/media/mohammadj/53f67744-2e22-44e6-99e3-fa5719d1486d1/Unify_Data/Public_Camus/training/patient0328'
p215
aS'/media/mohammadj/53f67744-2e22-44e6-99e3-fa5719d1486d1/Unify_Data/Public_Camus/training/patient0215'
p216
aS'/media/mohammadj/53f67744-2e22-44e6-99e3-fa5719d1486d1/Unify_Data/Public_Camus/training/patient0238'
p217
aS'/media/mohammadj/53f67744-2e22-44e6-99e3-fa5719d1486d1/Unify_Data/Public_Camus/training/patient0297'
p218
aS'/media/mohammadj/53f67744-2e22-44e6-99e3-fa5719d1486d1/Unify_Data/Public_Camus/training/patient0422'
p219
aS'/media/mohammadj/53f67744-2e22-44e6-99e3-fa5719d1486d1/Unify_Data/Public_Camus/training/patient0078'
p220
aS'/media/mohammadj/53f67744-2e22-44e6-99e3-fa5719d1486d1/Unify_Data/Public_Camus/training/patient0217'
p221
aS'/media/mohammadj/53f67744-2e22-44e6-99e3-fa5719d1486d1/Unify_Data/Public_Camus/training/patient0272'
p222
aS'/media/mohammadj/53f67744-2e22-44e6-99e3-fa5719d1486d1/Unify_Data/Public_Camus/training/patient0091'
p223
aS'/media/mohammadj/53f67744-2e22-44e6-99e3-fa5719d1486d1/Unify_Data/Public_Camus/training/patient0267'
p224
aS'/media/mohammadj/53f67744-2e22-44e6-99e3-fa5719d1486d1/Unify_Data/Public_Camus/training/patient0048'
p225
aS'/media/mohammadj/53f67744-2e22-44e6-99e3-fa5719d1486d1/Unify_Data/Public_Camus/training/patient0058'
p226
aS'/media/mohammadj/53f67744-2e22-44e6-99e3-fa5719d1486d1/Unify_Data/Public_Camus/training/patient0430'
p227
aS'/media/mohammadj/53f67744-2e22-44e6-99e3-fa5719d1486d1/Unify_Data/Public_Camus/training/patient0089'
p228
aS'/media/mohammadj/53f67744-2e22-44e6-99e3-fa5719d1486d1/Unify_Data/Public_Camus/training/patient0395'
p229
aS'/media/mohammadj/53f67744-2e22-44e6-99e3-fa5719d1486d1/Unify_Data/Public_Camus/training/patient0001'
p230
aS'/media/mohammadj/53f67744-2e22-44e6-99e3-fa5719d1486d1/Unify_Data/Public_Camus/training/patient0086'
p231
aS'/media/mohammadj/53f67744-2e22-44e6-99e3-fa5719d1486d1/Unify_Data/Public_Camus/training/patient0437'
p232
aS'/media/mohammadj/53f67744-2e22-44e6-99e3-fa5719d1486d1/Unify_Data/Public_Camus/training/patient0370'
p233
aS'/media/mohammadj/53f67744-2e22-44e6-99e3-fa5719d1486d1/Unify_Data/Public_Camus/training/patient0432'
p234
aS'/media/mohammadj/53f67744-2e22-44e6-99e3-fa5719d1486d1/Unify_Data/Public_Camus/training/patient0277'
p235
aS'/media/mohammadj/53f67744-2e22-44e6-99e3-fa5719d1486d1/Unify_Data/Public_Camus/training/patient0270'
p236
aS'/media/mohammadj/53f67744-2e22-44e6-99e3-fa5719d1486d1/Unify_Data/Public_Camus/training/patient0157'
p237
aS'/media/mohammadj/53f67744-2e22-44e6-99e3-fa5719d1486d1/Unify_Data/Public_Camus/training/patient0348'
p238
aS'/media/mohammadj/53f67744-2e22-44e6-99e3-fa5719d1486d1/Unify_Data/Public_Camus/training/patient0156'
p239
aS'/media/mohammadj/53f67744-2e22-44e6-99e3-fa5719d1486d1/Unify_Data/Public_Camus/training/patient0204'
p240
aS'/media/mohammadj/53f67744-2e22-44e6-99e3-fa5719d1486d1/Unify_Data/Public_Camus/training/patient0034'
p241
aS'/media/mohammadj/53f67744-2e22-44e6-99e3-fa5719d1486d1/Unify_Data/Public_Camus/training/patient0174'
p242
aS'/media/mohammadj/53f67744-2e22-44e6-99e3-fa5719d1486d1/Unify_Data/Public_Camus/training/patient0024'
p243
aS'/media/mohammadj/53f67744-2e22-44e6-99e3-fa5719d1486d1/Unify_Data/Public_Camus/training/patient0418'
p244
aS'/media/mohammadj/53f67744-2e22-44e6-99e3-fa5719d1486d1/Unify_Data/Public_Camus/training/patient0354'
p245
aS'/media/mohammadj/53f67744-2e22-44e6-99e3-fa5719d1486d1/Unify_Data/Public_Camus/training/patient0239'
p246
aS'/media/mohammadj/53f67744-2e22-44e6-99e3-fa5719d1486d1/Unify_Data/Public_Camus/training/patient0189'
p247
aS'/media/mohammadj/53f67744-2e22-44e6-99e3-fa5719d1486d1/Unify_Data/Public_Camus/training/patient0358'
p248
aS'/media/mohammadj/53f67744-2e22-44e6-99e3-fa5719d1486d1/Unify_Data/Public_Camus/training/patient0184'
p249
aS'/media/mohammadj/53f67744-2e22-44e6-99e3-fa5719d1486d1/Unify_Data/Public_Camus/training/patient0180'
p250
aS'/media/mohammadj/53f67744-2e22-44e6-99e3-fa5719d1486d1/Unify_Data/Public_Camus/training/patient0347'
p251
aS'/media/mohammadj/53f67744-2e22-44e6-99e3-fa5719d1486d1/Unify_Data/Public_Camus/training/patient0435'
p252
aS'/media/mohammadj/53f67744-2e22-44e6-99e3-fa5719d1486d1/Unify_Data/Public_Camus/training/patient0376'
p253
aS'/media/mohammadj/53f67744-2e22-44e6-99e3-fa5719d1486d1/Unify_Data/Public_Camus/training/patient0222'
p254
aS'/media/mohammadj/53f67744-2e22-44e6-99e3-fa5719d1486d1/Unify_Data/Public_Camus/training/patient0031'
p255
aS'/media/mohammadj/53f67744-2e22-44e6-99e3-fa5719d1486d1/Unify_Data/Public_Camus/training/patient0375'
p256
aS'/media/mohammadj/53f67744-2e22-44e6-99e3-fa5719d1486d1/Unify_Data/Public_Camus/training/patient0369'
p257
aS'/media/mohammadj/53f67744-2e22-44e6-99e3-fa5719d1486d1/Unify_Data/Public_Camus/training/patient0447'
p258
aS'/media/mohammadj/53f67744-2e22-44e6-99e3-fa5719d1486d1/Unify_Data/Public_Camus/training/patient0224'
p259
aS'/media/mohammadj/53f67744-2e22-44e6-99e3-fa5719d1486d1/Unify_Data/Public_Camus/training/patient0072'
p260
aS'/media/mohammadj/53f67744-2e22-44e6-99e3-fa5719d1486d1/Unify_Data/Public_Camus/training/patient0420'
p261
aS'/media/mohammadj/53f67744-2e22-44e6-99e3-fa5719d1486d1/Unify_Data/Public_Camus/training/patient0059'
p262
aS'/media/mohammadj/53f67744-2e22-44e6-99e3-fa5719d1486d1/Unify_Data/Public_Camus/training/patient0047'
p263
aS'/media/mohammadj/53f67744-2e22-44e6-99e3-fa5719d1486d1/Unify_Data/Public_Camus/training/patient0115'
p264
aS'/media/mohammadj/53f67744-2e22-44e6-99e3-fa5719d1486d1/Unify_Data/Public_Camus/training/patient0168'
p265
aS'/media/mohammadj/53f67744-2e22-44e6-99e3-fa5719d1486d1/Unify_Data/Public_Camus/training/patient0173'
p266
aS'/media/mohammadj/53f67744-2e22-44e6-99e3-fa5719d1486d1/Unify_Data/Public_Camus/training/patient0140'
p267
aS'/media/mohammadj/53f67744-2e22-44e6-99e3-fa5719d1486d1/Unify_Data/Public_Camus/training/patient0436'
p268
aS'/media/mohammadj/53f67744-2e22-44e6-99e3-fa5719d1486d1/Unify_Data/Public_Camus/training/patient0155'
p269
aS'/media/mohammadj/53f67744-2e22-44e6-99e3-fa5719d1486d1/Unify_Data/Public_Camus/training/patient0020'
p270
aS'/media/mohammadj/53f67744-2e22-44e6-99e3-fa5719d1486d1/Unify_Data/Public_Camus/training/patient0285'
p271
aS'/media/mohammadj/53f67744-2e22-44e6-99e3-fa5719d1486d1/Unify_Data/Public_Camus/training/patient0396'
p272
aS'/media/mohammadj/53f67744-2e22-44e6-99e3-fa5719d1486d1/Unify_Data/Public_Camus/training/patient0349'
p273
aS'/media/mohammadj/53f67744-2e22-44e6-99e3-fa5719d1486d1/Unify_Data/Public_Camus/training/patient0229'
p274
aS'/media/mohammadj/53f67744-2e22-44e6-99e3-fa5719d1486d1/Unify_Data/Public_Camus/training/patient0408'
p275
aS'/media/mohammadj/53f67744-2e22-44e6-99e3-fa5719d1486d1/Unify_Data/Public_Camus/training/patient0399'
p276
aS'/media/mohammadj/53f67744-2e22-44e6-99e3-fa5719d1486d1/Unify_Data/Public_Camus/training/patient0113'
p277
aS'/media/mohammadj/53f67744-2e22-44e6-99e3-fa5719d1486d1/Unify_Data/Public_Camus/training/patient0411'
p278
aS'/media/mohammadj/53f67744-2e22-44e6-99e3-fa5719d1486d1/Unify_Data/Public_Camus/training/patient0177'
p279
aS'/media/mohammadj/53f67744-2e22-44e6-99e3-fa5719d1486d1/Unify_Data/Public_Camus/training/patient0320'
p280
aS'/media/mohammadj/53f67744-2e22-44e6-99e3-fa5719d1486d1/Unify_Data/Public_Camus/training/patient0190'
p281
aS'/media/mohammadj/53f67744-2e22-44e6-99e3-fa5719d1486d1/Unify_Data/Public_Camus/training/patient0413'
p282
aS'/media/mohammadj/53f67744-2e22-44e6-99e3-fa5719d1486d1/Unify_Data/Public_Camus/training/patient0069'
p283
aS'/media/mohammadj/53f67744-2e22-44e6-99e3-fa5719d1486d1/Unify_Data/Public_Camus/training/patient0141'
p284
aS'/media/mohammadj/53f67744-2e22-44e6-99e3-fa5719d1486d1/Unify_Data/Public_Camus/training/patient0383'
p285
aS'/media/mohammadj/53f67744-2e22-44e6-99e3-fa5719d1486d1/Unify_Data/Public_Camus/training/patient0146'
p286
aS'/media/mohammadj/53f67744-2e22-44e6-99e3-fa5719d1486d1/Unify_Data/Public_Camus/training/patient0079'
p287
aS'/media/mohammadj/53f67744-2e22-44e6-99e3-fa5719d1486d1/Unify_Data/Public_Camus/training/patient0366'
p288
aS'/media/mohammadj/53f67744-2e22-44e6-99e3-fa5719d1486d1/Unify_Data/Public_Camus/training/patient0287'
p289
aS'/media/mohammadj/53f67744-2e22-44e6-99e3-fa5719d1486d1/Unify_Data/Public_Camus/training/patient0198'
p290
aS'/media/mohammadj/53f67744-2e22-44e6-99e3-fa5719d1486d1/Unify_Data/Public_Camus/training/patient0093'
p291
aS'/media/mohammadj/53f67744-2e22-44e6-99e3-fa5719d1486d1/Unify_Data/Public_Camus/training/patient0440'
p292
aS'/media/mohammadj/53f67744-2e22-44e6-99e3-fa5719d1486d1/Unify_Data/Public_Camus/training/patient0067'
p293
aS'/media/mohammadj/53f67744-2e22-44e6-99e3-fa5719d1486d1/Unify_Data/Public_Camus/training/patient0313'
p294
aS'/media/mohammadj/53f67744-2e22-44e6-99e3-fa5719d1486d1/Unify_Data/Public_Camus/training/patient0112'
p295
aS'/media/mohammadj/53f67744-2e22-44e6-99e3-fa5719d1486d1/Unify_Data/Public_Camus/training/patient0133'
p296
aS'/media/mohammadj/53f67744-2e22-44e6-99e3-fa5719d1486d1/Unify_Data/Public_Camus/training/patient0444'
p297
aS'/media/mohammadj/53f67744-2e22-44e6-99e3-fa5719d1486d1/Unify_Data/Public_Camus/training/patient0201'
p298
aS'/media/mohammadj/53f67744-2e22-44e6-99e3-fa5719d1486d1/Unify_Data/Public_Camus/training/patient0232'
p299
aS'/media/mohammadj/53f67744-2e22-44e6-99e3-fa5719d1486d1/Unify_Data/Public_Camus/training/patient0057'
p300
aS'/media/mohammadj/53f67744-2e22-44e6-99e3-fa5719d1486d1/Unify_Data/Public_Camus/training/patient0292'
p301
aS'/media/mohammadj/53f67744-2e22-44e6-99e3-fa5719d1486d1/Unify_Data/Public_Camus/training/patient0041'
p302
aS'/media/mohammadj/53f67744-2e22-44e6-99e3-fa5719d1486d1/Unify_Data/Public_Camus/training/patient0152'
p303
aS'/media/mohammadj/53f67744-2e22-44e6-99e3-fa5719d1486d1/Unify_Data/Public_Camus/training/patient0219'
p304
aS'/media/mohammadj/53f67744-2e22-44e6-99e3-fa5719d1486d1/Unify_Data/Public_Camus/training/patient0120'
p305
aS'/media/mohammadj/53f67744-2e22-44e6-99e3-fa5719d1486d1/Unify_Data/Public_Camus/training/patient0211'
p306
aS'/media/mohammadj/53f67744-2e22-44e6-99e3-fa5719d1486d1/Unify_Data/Public_Camus/training/patient0307'
p307
aS'/media/mohammadj/53f67744-2e22-44e6-99e3-fa5719d1486d1/Unify_Data/Public_Camus/training/patient0007'
p308
aS'/media/mohammadj/53f67744-2e22-44e6-99e3-fa5719d1486d1/Unify_Data/Public_Camus/training/patient0062'
p309
aS'/media/mohammadj/53f67744-2e22-44e6-99e3-fa5719d1486d1/Unify_Data/Public_Camus/training/patient0290'
p310
aS'/media/mohammadj/53f67744-2e22-44e6-99e3-fa5719d1486d1/Unify_Data/Public_Camus/training/patient0013'
p311
aS'/media/mohammadj/53f67744-2e22-44e6-99e3-fa5719d1486d1/Unify_Data/Public_Camus/training/patient0214'
p312
aS'/media/mohammadj/53f67744-2e22-44e6-99e3-fa5719d1486d1/Unify_Data/Public_Camus/training/patient0254'
p313
aS'/media/mohammadj/53f67744-2e22-44e6-99e3-fa5719d1486d1/Unify_Data/Public_Camus/training/patient0424'
p314
aS'/media/mohammadj/53f67744-2e22-44e6-99e3-fa5719d1486d1/Unify_Data/Public_Camus/training/patient0416'
p315
aS'/media/mohammadj/53f67744-2e22-44e6-99e3-fa5719d1486d1/Unify_Data/Public_Camus/training/patient0116'
p316
aS'/media/mohammadj/53f67744-2e22-44e6-99e3-fa5719d1486d1/Unify_Data/Public_Camus/training/patient0337'
p317
aS'/media/mohammadj/53f67744-2e22-44e6-99e3-fa5719d1486d1/Unify_Data/Public_Camus/training/patient0393'
p318
aS'/media/mohammadj/53f67744-2e22-44e6-99e3-fa5719d1486d1/Unify_Data/Public_Camus/training/patient0018'
p319
aS'/media/mohammadj/53f67744-2e22-44e6-99e3-fa5719d1486d1/Unify_Data/Public_Camus/training/patient0250'
p320
aS'/media/mohammadj/53f67744-2e22-44e6-99e3-fa5719d1486d1/Unify_Data/Public_Camus/training/patient0015'
p321
aS'/media/mohammadj/53f67744-2e22-44e6-99e3-fa5719d1486d1/Unify_Data/Public_Camus/training/patient0218'
p322
aS'/media/mohammadj/53f67744-2e22-44e6-99e3-fa5719d1486d1/Unify_Data/Public_Camus/training/patient0165'
p323
aS'/media/mohammadj/53f67744-2e22-44e6-99e3-fa5719d1486d1/Unify_Data/Public_Camus/training/patient0142'
p324
aS'/media/mohammadj/53f67744-2e22-44e6-99e3-fa5719d1486d1/Unify_Data/Public_Camus/training/patient0028'
p325
aS'/media/mohammadj/53f67744-2e22-44e6-99e3-fa5719d1486d1/Unify_Data/Public_Camus/training/patient0361'
p326
aS'/media/mohammadj/53f67744-2e22-44e6-99e3-fa5719d1486d1/Unify_Data/Public_Camus/training/patient0346'
p327
aS'/media/mohammadj/53f67744-2e22-44e6-99e3-fa5719d1486d1/Unify_Data/Public_Camus/training/patient0134'
p328
aS'/media/mohammadj/53f67744-2e22-44e6-99e3-fa5719d1486d1/Unify_Data/Public_Camus/training/patient0139'
p329
aS'/media/mohammadj/53f67744-2e22-44e6-99e3-fa5719d1486d1/Unify_Data/Public_Camus/training/patient0421'
p330
aS'/media/mohammadj/53f67744-2e22-44e6-99e3-fa5719d1486d1/Unify_Data/Public_Camus/training/patient0400'
p331
aS'/media/mohammadj/53f67744-2e22-44e6-99e3-fa5719d1486d1/Unify_Data/Public_Camus/training/patient0019'
p332
aS'/media/mohammadj/53f67744-2e22-44e6-99e3-fa5719d1486d1/Unify_Data/Public_Camus/training/patient0052'
p333
aS'/media/mohammadj/53f67744-2e22-44e6-99e3-fa5719d1486d1/Unify_Data/Public_Camus/training/patient0033'
p334
aS'/media/mohammadj/53f67744-2e22-44e6-99e3-fa5719d1486d1/Unify_Data/Public_Camus/training/patient0364'
p335
aS'/media/mohammadj/53f67744-2e22-44e6-99e3-fa5719d1486d1/Unify_Data/Public_Camus/training/patient0362'
p336
aS'/media/mohammadj/53f67744-2e22-44e6-99e3-fa5719d1486d1/Unify_Data/Public_Camus/training/patient0294'
p337
aS'/media/mohammadj/53f67744-2e22-44e6-99e3-fa5719d1486d1/Unify_Data/Public_Camus/training/patient0014'
p338
aS'/media/mohammadj/53f67744-2e22-44e6-99e3-fa5719d1486d1/Unify_Data/Public_Camus/training/patient0274'
p339
aS'/media/mohammadj/53f67744-2e22-44e6-99e3-fa5719d1486d1/Unify_Data/Public_Camus/training/patient0288'
p340
aS'/media/mohammadj/53f67744-2e22-44e6-99e3-fa5719d1486d1/Unify_Data/Public_Camus/training/patient0309'
p341
aS'/media/mohammadj/53f67744-2e22-44e6-99e3-fa5719d1486d1/Unify_Data/Public_Camus/training/patient0104'
p342
aS'/media/mohammadj/53f67744-2e22-44e6-99e3-fa5719d1486d1/Unify_Data/Public_Camus/training/patient0233'
p343
aS'/media/mohammadj/53f67744-2e22-44e6-99e3-fa5719d1486d1/Unify_Data/Public_Camus/training/patient0326'
p344
aS'/media/mohammadj/53f67744-2e22-44e6-99e3-fa5719d1486d1/Unify_Data/Public_Camus/training/patient0378'
p345
aS'/media/mohammadj/53f67744-2e22-44e6-99e3-fa5719d1486d1/Unify_Data/Public_Camus/training/patient0130'
p346
aS'/media/mohammadj/53f67744-2e22-44e6-99e3-fa5719d1486d1/Unify_Data/Public_Camus/training/patient0303'
p347
aS'/media/mohammadj/53f67744-2e22-44e6-99e3-fa5719d1486d1/Unify_Data/Public_Camus/training/patient0355'
p348
aS'/media/mohammadj/53f67744-2e22-44e6-99e3-fa5719d1486d1/Unify_Data/Public_Camus/training/patient0040'
p349
aS'/media/mohammadj/53f67744-2e22-44e6-99e3-fa5719d1486d1/Unify_Data/Public_Camus/training/patient0227'
p350
aS'/media/mohammadj/53f67744-2e22-44e6-99e3-fa5719d1486d1/Unify_Data/Public_Camus/training/patient0261'
p351
aS'/media/mohammadj/53f67744-2e22-44e6-99e3-fa5719d1486d1/Unify_Data/Public_Camus/training/patient0296'
p352
aS'/media/mohammadj/53f67744-2e22-44e6-99e3-fa5719d1486d1/Unify_Data/Public_Camus/training/patient0166'
p353
aS'/media/mohammadj/53f67744-2e22-44e6-99e3-fa5719d1486d1/Unify_Data/Public_Camus/training/patient0036'
p354
aS'/media/mohammadj/53f67744-2e22-44e6-99e3-fa5719d1486d1/Unify_Data/Public_Camus/training/patient0339'
p355
aS'/media/mohammadj/53f67744-2e22-44e6-99e3-fa5719d1486d1/Unify_Data/Public_Camus/training/patient0159'
p356
aS'/media/mohammadj/53f67744-2e22-44e6-99e3-fa5719d1486d1/Unify_Data/Public_Camus/training/patient0260'
p357
aS'/media/mohammadj/53f67744-2e22-44e6-99e3-fa5719d1486d1/Unify_Data/Public_Camus/training/patient0275'
p358
aS'/media/mohammadj/53f67744-2e22-44e6-99e3-fa5719d1486d1/Unify_Data/Public_Camus/training/patient0096'
p359
aS'/media/mohammadj/53f67744-2e22-44e6-99e3-fa5719d1486d1/Unify_Data/Public_Camus/training/patient0123'
p360
a.